; Function Attrs: mustprogress uwtable
define void @_Z22mergeAtomModificationsRK21MoleculePatchDatabasePS_(ptr nocapture noundef nonnull readonly align 8 dereferenceable(280) %0, ptr noundef %1) local_unnamed_addr #2 {
  %3 = getelementptr inbounds i8, ptr %0, i64 64
  %4 = load ptr, ptr %3, align 8
  %5 = getelementptr inbounds i8, ptr %0, i64 72
  %6 = load ptr, ptr %5, align 8
  %.not8 = icmp eq ptr %4, %6
  br i1 %.not8, label %._crit_edge, label %.lr.ph

.lr.ph:                                           ; preds = %2
  %7 = getelementptr inbounds i8, ptr %1, i64 72
  %8 = getelementptr inbounds i8, ptr %1, i64 80
  %9 = getelementptr inbounds i8, ptr %1, i64 64
  br label %10

10:                                               ; preds = %.lr.ph, %_ZNSt6vectorI13MoleculePatchSaIS0_EE9push_backERKS0_.exit
  %.sroa.05.09 = phi ptr [ %4, %.lr.ph ], [ %17, %_ZNSt6vectorI13MoleculePatchSaIS0_EE9push_backERKS0_.exit ]
  %11 = load ptr, ptr %7, align 8
  %12 = load ptr, ptr %8, align 8
  %.not.i = icmp eq ptr %11, %12
  br i1 %.not.i, label %16, label %13

13:                                               ; preds = %10
  tail call void @_ZN13MoleculePatchC2ERKS_(ptr noundef nonnull align 8 dereferenceable(256) %11, ptr noundef nonnull align 8 dereferenceable(256) %.sroa.05.09)
  %14 = load ptr, ptr %7, align 8
  %15 = getelementptr inbounds i8, ptr %14, i64 256
  store ptr %15, ptr %7, align 8
  br label %_ZNSt6vectorI13MoleculePatchSaIS0_EE9push_backERKS0_.exit

16:                                               ; preds = %10
  tail call void @_ZNSt6vectorI13MoleculePatchSaIS0_EE17_M_realloc_insertIJRKS0_EEEvN9__gnu_cxx17__normal_iteratorIPS0_S2_EEDpOT_(ptr noundef nonnull align 8 dereferenceable(24) %9, ptr %11, ptr noundef nonnull align 8 dereferenceable(256) %.sroa.05.09)
  br label %_ZNSt6vectorI13MoleculePatchSaIS0_EE9push_backERKS0_.exit

_ZNSt6vectorI13MoleculePatchSaIS0_EE9push_backERKS0_.exit: ; preds = %13, %16
  %17 = getelementptr inbounds i8, ptr %.sroa.05.09, i64 256
  %.not = icmp eq ptr %17, %6
  br i1 %.not, label %._crit_edge, label %10

._crit_edge:                                      ; preds = %_ZNSt6vectorI13MoleculePatchSaIS0_EE9push_backERKS0_.exit, %2
  ret void
}